target datalayout = "e-m:e-p270:32:32-p271:32:32-p272:64:64-i64:64-i128:128-f80:128-n8:16:32:64-S128"
target triple = "x86_64-pc-linux-gnu"

%struct._zval_struct = type { %union._zend_value, %union.anon, %union.anon.2 }
%union._zend_value = type { i64 }
%union.anon = type { i32 }
%union.anon.2 = type { i32 }
%struct._zend_execute_data = type { ptr, ptr, ptr, ptr, %struct._zval_struct, ptr, ptr, ptr, ptr }
%struct.anon.0 = type { i8, i8, %union.anon.1 }
%union.anon.1 = type { i16 }

@.str.2 = private unnamed_addr constant [7 x i8] c"stream\00", align 1
@zend_one_char_string = external global [256 x ptr], align 16

; Function Attrs: alwaysinline nounwind uwtable
define internal zeroext i8 @zval_get_type(ptr noundef %0) #7 {
  %2 = alloca ptr, align 8
  store ptr %0, ptr %2, align 8, !tbaa !30
  %3 = load ptr, ptr %2, align 8, !tbaa !30
  %4 = getelementptr inbounds nuw %struct._zval_struct, ptr %3, i32 0, i32 1
  %5 = getelementptr inbounds nuw %struct.anon.0, ptr %4, i32 0, i32 0
  %6 = load i8, ptr %5, align 8, !tbaa !17
  ret i8 %6
}

; Function Attrs: alwaysinline nounwind uwtable
define internal zeroext i1 @zend_parse_arg_resource(ptr noundef %0, ptr noundef %1, i1 noundef zeroext %2) #7 {
  %4 = alloca i1, align 1
  %5 = alloca ptr, align 8
  %6 = alloca ptr, align 8
  %7 = alloca i8, align 1
  store ptr %0, ptr %5, align 8, !tbaa !30
  store ptr %1, ptr %6, align 8, !tbaa !67
  %8 = zext i1 %2 to i8
  store i8 %8, ptr %7, align 1, !tbaa !64
  %9 = load ptr, ptr %5, align 8, !tbaa !30
  %10 = call zeroext i8 @zval_get_type(ptr noundef %9)
  %11 = zext i8 %10 to i32
  %12 = icmp eq i32 %11, 9
  %13 = xor i1 %12, true
  %14 = xor i1 %13, true
  %15 = zext i1 %14 to i32
  %16 = sext i32 %15 to i64
  %17 = call i64 @llvm.expect.i64(i64 %16, i64 1)
  %18 = icmp ne i64 %17, 0
  br i1 %18, label %19, label %22

19:                                               ; preds = %3
  %20 = load ptr, ptr %5, align 8, !tbaa !30
  %21 = load ptr, ptr %6, align 8, !tbaa !67
  store ptr %20, ptr %21, align 8, !tbaa !30
  br label %40

22:                                               ; preds = %3
  %23 = load i8, ptr %7, align 1, !tbaa !64, !range !65, !noundef !66
  %24 = trunc i8 %23 to i1
  br i1 %24, label %25, label %38

25:                                               ; preds = %22
  %26 = load ptr, ptr %5, align 8, !tbaa !30
  %27 = call zeroext i8 @zval_get_type(ptr noundef %26)
  %28 = zext i8 %27 to i32
  %29 = icmp eq i32 %28, 1
  %30 = xor i1 %29, true
  %31 = xor i1 %30, true
  %32 = zext i1 %31 to i32
  %33 = sext i32 %32 to i64
  %34 = call i64 @llvm.expect.i64(i64 %33, i64 1)
  %35 = icmp ne i64 %34, 0
  br i1 %35, label %36, label %38

36:                                               ; preds = %25
  %37 = load ptr, ptr %6, align 8, !tbaa !67
  store ptr null, ptr %37, align 8, !tbaa !30
  br label %39

38:                                               ; preds = %25, %22
  store i1 false, ptr %4, align 1
  br label %41

39:                                               ; preds = %36
  br label %40

40:                                               ; preds = %39, %19
  store i1 true, ptr %4, align 1
  br label %41

41:                                               ; preds = %40, %38
  %42 = load i1, ptr %4, align 1
  ret i1 %42
}

; Function Attrs: nounwind uwtable
define dso_local void @zif_fgetc(ptr noundef %0, ptr noundef %1) #0 {
  %3 = alloca ptr, align 8
  %4 = alloca ptr, align 8
  %5 = alloca ptr, align 8
  %6 = alloca ptr, align 8
  %7 = alloca i32, align 4
  %8 = alloca i32, align 4
  %9 = alloca i32, align 4
  %10 = alloca i32, align 4
  %11 = alloca i32, align 4
  %12 = alloca ptr, align 8
  %13 = alloca ptr, align 8
  %14 = alloca i32, align 4
  %15 = alloca ptr, align 8
  %16 = alloca i8, align 1
  %17 = alloca i8, align 1
  %18 = alloca i32, align 4
  %19 = alloca i32, align 4
  %20 = alloca i32, align 4
  %21 = alloca i8, align 1
  %22 = alloca ptr, align 8
  %23 = alloca ptr, align 8
  store ptr %0, ptr %3, align 8, !tbaa !62
  store ptr %1, ptr %4, align 8, !tbaa !30
  call void @llvm.lifetime.start.p0(i64 8, ptr %5) #14
  call void @llvm.lifetime.start.p0(i64 8, ptr %6) #14
  br label %24

24:                                               ; preds = %2
  call void @llvm.lifetime.start.p0(i64 4, ptr %7) #14
  store i32 0, ptr %7, align 4, !tbaa !4
  call void @llvm.lifetime.start.p0(i64 4, ptr %8) #14
  store i32 1, ptr %8, align 4, !tbaa !4
  call void @llvm.lifetime.start.p0(i64 4, ptr %9) #14
  store i32 1, ptr %9, align 4, !tbaa !4
  call void @llvm.lifetime.start.p0(i64 4, ptr %10) #14
  %25 = load ptr, ptr %3, align 8, !tbaa !62
  %26 = getelementptr inbounds nuw %struct._zend_execute_data, ptr %25, i32 0, i32 4
  %27 = getelementptr inbounds nuw %struct._zval_struct, ptr %26, i32 0, i32 2
  %28 = load i32, ptr %27, align 4, !tbaa !17
  store i32 %28, ptr %10, align 4, !tbaa !4
  call void @llvm.lifetime.start.p0(i64 4, ptr %11) #14
  store i32 0, ptr %11, align 4, !tbaa !4
  call void @llvm.lifetime.start.p0(i64 8, ptr %12) #14
  call void @llvm.lifetime.start.p0(i64 8, ptr %13) #14
  store ptr null, ptr %13, align 8, !tbaa !30
  call void @llvm.lifetime.start.p0(i64 4, ptr %14) #14
  store i32 0, ptr %14, align 4, !tbaa !4
  call void @llvm.lifetime.start.p0(i64 8, ptr %15) #14
  store ptr null, ptr %15, align 8, !tbaa !63
  call void @llvm.lifetime.start.p0(i64 1, ptr %16) #14
  store i8 0, ptr %16, align 1, !tbaa !64
  call void @llvm.lifetime.start.p0(i64 1, ptr %17) #14
  store i8 0, ptr %17, align 1, !tbaa !64
  call void @llvm.lifetime.start.p0(i64 4, ptr %18) #14
  store i32 0, ptr %18, align 4, !tbaa !4
  br label %29

29:                                               ; preds = %24
  %30 = load i32, ptr %10, align 4, !tbaa !4
  %31 = load i32, ptr %8, align 4, !tbaa !4
  %32 = icmp ult i32 %30, %31
  %33 = xor i1 %32, true
  %34 = xor i1 %33, true
  %35 = zext i1 %34 to i32
  %36 = sext i32 %35 to i64
  %37 = call i64 @llvm.expect.i64(i64 %36, i64 0)
  %38 = icmp ne i64 %37, 0
  br i1 %38, label %49, label %39

39:                                               ; preds = %29
  %40 = load i32, ptr %10, align 4, !tbaa !4
  %41 = load i32, ptr %9, align 4, !tbaa !4
  %42 = icmp ugt i32 %40, %41
  %43 = xor i1 %42, true
  %44 = xor i1 %43, true
  %45 = zext i1 %44 to i32
  %46 = sext i32 %45 to i64
  %47 = call i64 @llvm.expect.i64(i64 %46, i64 0)
  %48 = icmp ne i64 %47, 0
  br i1 %48, label %49, label %52

49:                                               ; preds = %39, %29
  %50 = load i32, ptr %8, align 4, !tbaa !4
  %51 = load i32, ptr %9, align 4, !tbaa !4
  call void @zend_wrong_parameters_count_error(i32 noundef %50, i32 noundef %51)
  store i32 1, ptr %18, align 4, !tbaa !4
  br label %115

52:                                               ; preds = %39
  %53 = load ptr, ptr %3, align 8, !tbaa !62
  %54 = getelementptr inbounds %struct._zval_struct, ptr %53, i64 4
  store ptr %54, ptr %12, align 8, !tbaa !30
  %55 = load i32, ptr %11, align 4, !tbaa !4
  %56 = add i32 %55, 1
  store i32 %56, ptr %11, align 4, !tbaa !4
  %57 = load i32, ptr %11, align 4, !tbaa !4
  %58 = load i32, ptr %8, align 4, !tbaa !4
  %59 = icmp ule i32 %57, %58
  br i1 %59, label %65, label %60

60:                                               ; preds = %52
  %61 = load i8, ptr %17, align 1, !tbaa !64, !range !65, !noundef !66
  %62 = trunc i8 %61 to i1
  %63 = zext i1 %62 to i32
  %64 = icmp eq i32 %63, 1
  br label %65

65:                                               ; preds = %60, %52
  %66 = phi i1 [ true, %52 ], [ %64, %60 ]
  call void @llvm.assume(i1 %66)
  %67 = load i32, ptr %11, align 4, !tbaa !4
  %68 = load i32, ptr %8, align 4, !tbaa !4
  %69 = icmp ugt i32 %67, %68
  br i1 %69, label %75, label %70

70:                                               ; preds = %65
  %71 = load i8, ptr %17, align 1, !tbaa !64, !range !65, !noundef !66
  %72 = trunc i8 %71 to i1
  %73 = zext i1 %72 to i32
  %74 = icmp eq i32 %73, 0
  br label %75

75:                                               ; preds = %70, %65
  %76 = phi i1 [ true, %65 ], [ %74, %70 ]
  call void @llvm.assume(i1 %76)
  %77 = load i8, ptr %17, align 1, !tbaa !64, !range !65, !noundef !66
  %78 = trunc i8 %77 to i1
  br i1 %78, label %79, label %91

79:                                               ; preds = %75
  %80 = load i32, ptr %11, align 4, !tbaa !4
  %81 = load i32, ptr %10, align 4, !tbaa !4
  %82 = icmp ugt i32 %80, %81
  %83 = xor i1 %82, true
  %84 = xor i1 %83, true
  %85 = zext i1 %84 to i32
  %86 = sext i32 %85 to i64
  %87 = call i64 @llvm.expect.i64(i64 %86, i64 0)
  %88 = icmp ne i64 %87, 0
  br i1 %88, label %89, label %90

89:                                               ; preds = %79
  br label %115

90:                                               ; preds = %79
  br label %91

91:                                               ; preds = %90, %75
  %92 = load ptr, ptr %12, align 8, !tbaa !30
  %93 = getelementptr inbounds nuw %struct._zval_struct, ptr %92, i32 1
  store ptr %93, ptr %12, align 8, !tbaa !30
  %94 = load ptr, ptr %12, align 8, !tbaa !30
  store ptr %94, ptr %13, align 8, !tbaa !30
  %95 = load ptr, ptr %13, align 8, !tbaa !30
  %96 = call zeroext i1 @zend_parse_arg_resource(ptr noundef %95, ptr noundef %5, i1 noundef zeroext false)
  %97 = xor i1 %96, true
  %98 = xor i1 %97, true
  %99 = xor i1 %98, true
  %100 = zext i1 %99 to i32
  %101 = sext i32 %100 to i64
  %102 = call i64 @llvm.expect.i64(i64 %101, i64 0)
  %103 = icmp ne i64 %102, 0
  br i1 %103, label %104, label %105

104:                                              ; preds = %91
  store i32 14, ptr %14, align 4, !tbaa !4
  store i32 9, ptr %18, align 4, !tbaa !4
  br label %115

105:                                              ; preds = %91
  %106 = load i32, ptr %11, align 4, !tbaa !4
  %107 = load i32, ptr %9, align 4, !tbaa !4
  %108 = icmp eq i32 %106, %107
  br i1 %108, label %112, label %109

109:                                              ; preds = %105
  %110 = load i32, ptr %9, align 4, !tbaa !4
  %111 = icmp eq i32 %110, -1
  br label %112

112:                                              ; preds = %109, %105
  %113 = phi i1 [ true, %105 ], [ %111, %109 ]
  call void @llvm.assume(i1 %113)
  br label %114

114:                                              ; preds = %112
  br label %115

115:                                              ; preds = %114, %104, %89, %49
  %116 = load i32, ptr %18, align 4, !tbaa !4
  %117 = icmp ne i32 %116, 0
  %118 = xor i1 %117, true
  %119 = xor i1 %118, true
  %120 = zext i1 %119 to i32
  %121 = sext i32 %120 to i64
  %122 = call i64 @llvm.expect.i64(i64 %121, i64 0)
  %123 = icmp ne i64 %122, 0
  br i1 %123, label %124, label %130

124:                                              ; preds = %115
  %125 = load i32, ptr %18, align 4, !tbaa !4
  %126 = load i32, ptr %11, align 4, !tbaa !4
  %127 = load ptr, ptr %15, align 8, !tbaa !63
  %128 = load i32, ptr %14, align 4, !tbaa !4
  %129 = load ptr, ptr %13, align 8, !tbaa !30
  call void @zend_wrong_parameter_error(i32 noundef %125, i32 noundef %126, ptr noundef %127, i32 noundef %128, ptr noundef %129)
  store i32 1, ptr %19, align 4
  br label %131

130:                                              ; preds = %115
  store i32 0, ptr %19, align 4
  br label %131

131:                                              ; preds = %130, %124
  call void @llvm.lifetime.end.p0(i64 4, ptr %18) #14
  call void @llvm.lifetime.end.p0(i64 1, ptr %17) #14
  call void @llvm.lifetime.end.p0(i64 1, ptr %16) #14
  call void @llvm.lifetime.end.p0(i64 8, ptr %15) #14
  call void @llvm.lifetime.end.p0(i64 4, ptr %14) #14
  call void @llvm.lifetime.end.p0(i64 8, ptr %13) #14
  call void @llvm.lifetime.end.p0(i64 8, ptr %12) #14
  call void @llvm.lifetime.end.p0(i64 4, ptr %11) #14
  call void @llvm.lifetime.end.p0(i64 4, ptr %10) #14
  call void @llvm.lifetime.end.p0(i64 4, ptr %9) #14
  call void @llvm.lifetime.end.p0(i64 4, ptr %8) #14
  call void @llvm.lifetime.end.p0(i64 4, ptr %7) #14
  %132 = load i32, ptr %19, align 4
  switch i32 %132, label %182 [
    i32 0, label %133
  ]

133:                                              ; preds = %131
  br label %134

134:                                              ; preds = %133
  br label %135

135:                                              ; preds = %134
  br label %136

136:                                              ; preds = %135
  %137 = load ptr, ptr %5, align 8, !tbaa !30
  %138 = getelementptr inbounds nuw %struct._zval_struct, ptr %137, i32 0, i32 0
  %139 = load ptr, ptr %138, align 8, !tbaa !17
  %140 = call i32 @php_file_le_stream()
  %141 = call i32 @php_file_le_pstream()
  %142 = call ptr @zend_fetch_resource2(ptr noundef %139, ptr noundef @.str.2, i32 noundef %140, i32 noundef %141)
  store ptr %142, ptr %6, align 8, !tbaa !27
  %143 = icmp eq ptr %142, null
  br i1 %143, label %144, label %145

144:                                              ; preds = %136
  store i32 1, ptr %19, align 4
  br label %182

145:                                              ; preds = %136
  br label %146

146:                                              ; preds = %145
  br label %147

147:                                              ; preds = %146
  call void @llvm.lifetime.start.p0(i64 4, ptr %20) #14
  %148 = load ptr, ptr %6, align 8, !tbaa !27
  %149 = call i32 @_php_stream_getc(ptr noundef %148)
  store i32 %149, ptr %20, align 4, !tbaa !4
  %150 = load i32, ptr %20, align 4, !tbaa !4
  %151 = icmp eq i32 %150, -1
  br i1 %151, label %152, label %158

152:                                              ; preds = %147
  br label %153

153:                                              ; preds = %152
  %154 = load ptr, ptr %4, align 8, !tbaa !30
  %155 = getelementptr inbounds nuw %struct._zval_struct, ptr %154, i32 0, i32 1
  store i32 2, ptr %155, align 8, !tbaa !17
  br label %156

156:                                              ; preds = %153
  br label %157

157:                                              ; preds = %156
  br label %180

158:                                              ; preds = %147
  br label %159

159:                                              ; preds = %158
  br label %160

160:                                              ; preds = %159
  call void @llvm.lifetime.start.p0(i64 1, ptr %21) #14
  %161 = load i32, ptr %20, align 4, !tbaa !4
  %162 = trunc i32 %161 to i8
  store i8 %162, ptr %21, align 1, !tbaa !17
  br label %163

163:                                              ; preds = %160
  call void @llvm.lifetime.start.p0(i64 8, ptr %22) #14
  %164 = load ptr, ptr %4, align 8, !tbaa !30
  store ptr %164, ptr %22, align 8, !tbaa !30
  call void @llvm.lifetime.start.p0(i64 8, ptr %23) #14
  %165 = load i8, ptr %21, align 1, !tbaa !17
  %166 = zext i8 %165 to i64
  %167 = getelementptr inbounds nuw [256 x ptr], ptr @zend_one_char_string, i64 0, i64 %166
  %168 = load ptr, ptr %167, align 8, !tbaa !80
  store ptr %168, ptr %23, align 8, !tbaa !80
  %169 = load ptr, ptr %23, align 8, !tbaa !80
  %170 = load ptr, ptr %22, align 8, !tbaa !30
  %171 = getelementptr inbounds nuw %struct._zval_struct, ptr %170, i32 0, i32 0
  store ptr %169, ptr %171, align 8, !tbaa !17
  %172 = load ptr, ptr %22, align 8, !tbaa !30
  %173 = getelementptr inbounds nuw %struct._zval_struct, ptr %172, i32 0, i32 1
  store i32 6, ptr %173, align 8, !tbaa !17
  call void @llvm.lifetime.end.p0(i64 8, ptr %23) #14
  call void @llvm.lifetime.end.p0(i64 8, ptr %22) #14
  br label %174

174:                                              ; preds = %163
  br label %175

175:                                              ; preds = %174
  call void @llvm.lifetime.end.p0(i64 1, ptr %21) #14
  br label %176

176:                                              ; preds = %175
  br label %177

177:                                              ; preds = %176
  store i32 1, ptr %19, align 4
  br label %181

178:                                              ; No predecessors!
  br label %179

179:                                              ; preds = %178
  br label %180

180:                                              ; preds = %179, %157
  store i32 0, ptr %19, align 4
  br label %181

181:                                              ; preds = %180, %177
  call void @llvm.lifetime.end.p0(i64 4, ptr %20) #14
  br label %182

182:                                              ; preds = %181, %144, %131
  call void @llvm.lifetime.end.p0(i64 8, ptr %6) #14
  call void @llvm.lifetime.end.p0(i64 8, ptr %5) #14
  %183 = load i32, ptr %19, align 4
  switch i32 %183, label %185 [
    i32 0, label %184
    i32 1, label %184
  ]

184:                                              ; preds = %182, %182
  ret void

185:                                              ; preds = %182
  unreachable
}