; Function Attrs: nounwind uwtable
define dso_local void @zif_fgetc(ptr noundef %0, ptr noundef writeonly captures(none) %1) local_unnamed_addr #1 {
  %3 = getelementptr inbounds nuw i8, ptr %0, i64 44
  %4 = load i32, ptr %3, align 4, !tbaa !21
  %cond = icmp eq i32 %4, 1
  br i1 %cond, label %6, label %5, !prof !54

5:                                                ; preds = %2
  tail call void @zend_wrong_parameters_count_error(i32 noundef 1, i32 noundef 1) #18
  br label %11

6:                                                ; preds = %2
  %7 = getelementptr inbounds nuw i8, ptr %0, i64 80
  %8 = getelementptr inbounds nuw i8, ptr %0, i64 88
  %9 = load i8, ptr %8, align 8, !tbaa !21
  %10 = icmp eq i8 %9, 9
  br i1 %10, label %.critedge, label %11, !prof !52

11:                                               ; preds = %5, %6
  %.042.ph = phi i32 [ 9, %6 ], [ 1, %5 ]
  %.040.ph = phi i32 [ 14, %6 ], [ 0, %5 ]
  %.039.ph = phi ptr [ %7, %6 ], [ null, %5 ]
  %.0.ph = phi i32 [ 1, %6 ], [ 0, %5 ]
  tail call void @zend_wrong_parameter_error(i32 noundef %.042.ph, i32 noundef %.0.ph, ptr noundef null, i32 noundef %.040.ph, ptr noundef %.039.ph) #18
  br label %28

.critedge:                                        ; preds = %6
  %12 = load ptr, ptr %7, align 8, !tbaa !21
  %13 = tail call i32 @php_file_le_stream() #18
  %14 = tail call i32 @php_file_le_pstream() #18
  %15 = tail call ptr @zend_fetch_resource2(ptr noundef %12, ptr noundef nonnull @.str.2, i32 noundef %13, i32 noundef %14) #18
  %16 = icmp eq ptr %15, null
  br i1 %16, label %28, label %17

17:                                               ; preds = %.critedge
  %18 = tail call i32 @_php_stream_getc(ptr noundef nonnull %15) #18
  %19 = icmp eq i32 %18, -1
  br i1 %19, label %20, label %22

20:                                               ; preds = %17
  %21 = getelementptr inbounds nuw i8, ptr %1, i64 8
  store i32 2, ptr %21, align 8, !tbaa !21
  br label %28

22:                                               ; preds = %17
  %23 = and i32 %18, 255
  %24 = zext nneg i32 %23 to i64
  %25 = getelementptr inbounds nuw [256 x ptr], ptr @zend_one_char_string, i64 0, i64 %24
  %26 = load ptr, ptr %25, align 8, !tbaa !59
  store ptr %26, ptr %1, align 8, !tbaa !21
  %27 = getelementptr inbounds nuw i8, ptr %1, i64 8
  store i32 6, ptr %27, align 8, !tbaa !21
  br label %28

28:                                               ; preds = %11, %22, %20, %.critedge
  ret void
}